(dp0
Vsg_bundle_data
p1
(dp2
Vtype
p3
VCustomNonProjectEntity07
p4
sVid
p5
I81
sVsg_system_name
p6
Vtk-config-default2
p7
sVsg_status_list
p8
Vhidden
p9
sVsg_deprecation_message
p10
NssVsg_version_data
p11
(dp12
Vtype
p13
VCustomNonProjectEntity08
p14
sVid
p15
I4206
sVcode
p16
Vv1.7.2
p17
sVsg_status_list
p18
Vprod
p19
sVdescription
p20
V[No wiki release notes found]
p21
sVtags
p22
(lp23
sVsg_detailed_release_notes
p24
NsVsg_documentation
p25
NsVsg_payload
p26
(dp27
Vurl
p28
Vhttps://s3-proxy.shotgunstudio.com/d18c13bf0e59a9a82f18be518a1b6b508bcbd774/1df5c20af4f0c6384dd916c533edb4b6def53193/tk-config-default2_v1.7.2.zip?response-content-disposition=filename%3D%22tk-config-default2_v1.7.2.zip%22&x-amz-meta-user-id=42&x-amz-meta-user-type=ApiUser&X-Amz-Algorithm=AWS4-HMAC-SHA256&X-Amz-Credential=ASIAYJG6Z4JI7RAKXF65%2F20241109%2Fus-west-2%2Fs3%2Faws4_request&X-Amz-Date=20241109T160723Z&X-Amz-SignedHeaders=host&X-Amz-Expires=900&X-Amz-Security-Token=IQoJb3JpZ2luX2VjEPD%2F%2F%2F%2F%2F%2F%2F%2F%2F%2FwEaCXVzLWVhc3QtMSJIMEYCIQCqlR0EvlXQvZCHRUsjHn85hhJcnUbullYXfw7Wd4w1EwIhAID5a1cyX6xY0ImBLwtyGeZYdnYSIoaDjRgkm%2ByidbFvKpgCCHkQABoMNTY5NTUwNDMwODAxIgwXY%2FVcrmhOmD%2FVVTEq9QFOdye2PUI1kyBE7R9HAy4%2Bc0%2FJlRM70FWMoRc10kWoenXP%2BR9%2F2VEExE2L%2BJ863Ti0b7ygnQFO%2FZUOkQN7RVXitJtPpz%2BATCYJFRtJeJ60rfKVtFw5%2FxLmbE3S3%2FcMtVYjf%2FJKZJBim8qFvw8eAwc%2Bb3fwa8CjyBr1FOFII2lM1GdDXHmr2JnoixtLUW2eB%2BVzjtJYDOsHtA%2FUFgloUp1N%2FPv7%2B4huvl13hmb6QTtO%2Bz%2B8Dhe6%2BXJArFBjcfQwSxzYAcJtTWRhdLbeoAOJ9SnEulvtb4pg8e5KFFWrcAw%2BsDGE4fkQM0Rr5nSX69HpTJt6ueJEhDDhj765BjqcAbdZY3c%2FASLSxTXZOltfsbJL6rwAFhYEpUbiewOTyE%2B7UP0a4gibCE3K8tDaymJPLplIvUwhVg02ByQJ6fROx5inmCavG8D01MbzlF2Y45wiNG6YJ9%2F318FFiPKU8zUFMrDObluMabmpqGk6AwtoV1P%2Fevm5HA5b4XQHW%2Fvl2u0aM6SCkQci2A0jbhZBUETMVL9kN7BUMu%2FUU2a4uA%3D%3D&X-Amz-Signature=ed39a1a7c4c006428f6d19a93aae518b221e244a310025edabea611ba7324b20
p29
sVname
p30
Vtk-config-default2_v1.7.2.zip
p31
sVcontent_type
p32
Vapplication/zip
p33
sVlink_type
p34
Vupload
p35
sg13
VAttachment
p36
sg15
I33906
sss.